target datalayout = "e-m:e-p270:32:32-p271:32:32-p272:64:64-i64:64-i128:128-f80:128-n8:16:32:64-S128"
target triple = "x86_64-pc-linux-gnu"

%class.BuildContext = type { %class.rcContext.base, [28 x i64], [28 x i64], [1000 x ptr], i32, [8000 x i8], i32 }
%class.rcContext.base = type <{ ptr, i8, i8 }>

; Function Attrs: mustprogress nounwind uwtable
define linkonce_odr dso_local noundef i32 @_Z5rcMinIiET_S0_S0_(i32 noundef %0, i32 noundef %1) #1 comdat {
  %3 = alloca i32, align 4
  %4 = alloca i32, align 4
  store i32 %0, ptr %3, align 4
  store i32 %1, ptr %4, align 4
  %5 = load i32, ptr %3, align 4
  %6 = load i32, ptr %4, align 4
  %7 = icmp slt i32 %5, %6
  br i1 %7, label %8, label %10

8:                                                ; preds = %2
  %9 = load i32, ptr %3, align 4
  br label %12

10:                                               ; preds = %2
  %11 = load i32, ptr %4, align 4
  br label %12

12:                                               ; preds = %10, %8
  %13 = phi i32 [ %9, %8 ], [ %11, %10 ]
  ret i32 %13
}

; Function Attrs: mustprogress uwtable
define dso_local void @_ZN12BuildContext5doLogE13rcLogCategoryPKci(ptr noundef nonnull align 8 dereferenceable(16472) %0, i32 noundef %1, ptr noundef %2, i32 noundef %3) unnamed_addr #0 align 2 {
  %5 = alloca ptr, align 8
  %6 = alloca i32, align 4
  %7 = alloca ptr, align 8
  %8 = alloca i32, align 4
  %9 = alloca ptr, align 8
  %10 = alloca i32, align 4
  %11 = alloca ptr, align 8
  %12 = alloca ptr, align 8
  %13 = alloca i32, align 4
  %14 = alloca i32, align 4
  store ptr %0, ptr %5, align 8
  store i32 %1, ptr %6, align 4
  store ptr %2, ptr %7, align 8
  store i32 %3, ptr %8, align 4
  %15 = load ptr, ptr %5, align 8
  %16 = load i32, ptr %8, align 4
  %17 = icmp ne i32 %16, 0
  br i1 %17, label %19, label %18

18:                                               ; preds = %4
  br label %70

19:                                               ; preds = %4
  %20 = getelementptr inbounds %class.BuildContext, ptr %15, i32 0, i32 4
  %21 = load i32, ptr %20, align 8
  %22 = icmp sge i32 %21, 1000
  br i1 %22, label %23, label %24

23:                                               ; preds = %19
  br label %70

24:                                               ; preds = %19
  %25 = getelementptr inbounds %class.BuildContext, ptr %15, i32 0, i32 5
  %26 = getelementptr inbounds %class.BuildContext, ptr %15, i32 0, i32 6
  %27 = load i32, ptr %26, align 4
  %28 = sext i32 %27 to i64
  %29 = getelementptr inbounds [8000 x i8], ptr %25, i64 0, i64 %28
  store ptr %29, ptr %9, align 8
  %30 = getelementptr inbounds %class.BuildContext, ptr %15, i32 0, i32 6
  %31 = load i32, ptr %30, align 4
  %32 = sub nsw i32 8000, %31
  store i32 %32, ptr %10, align 4
  %33 = load i32, ptr %10, align 4
  %34 = icmp slt i32 %33, 2
  br i1 %34, label %35, label %36

35:                                               ; preds = %24
  br label %70

36:                                               ; preds = %24
  %37 = load ptr, ptr %9, align 8
  store ptr %37, ptr %11, align 8
  %38 = load ptr, ptr %9, align 8
  %39 = getelementptr inbounds i8, ptr %38, i64 1
  store ptr %39, ptr %12, align 8
  %40 = load i32, ptr %10, align 4
  %41 = sub nsw i32 %40, 1
  store i32 %41, ptr %13, align 4
  %42 = load i32, ptr %6, align 4
  %43 = trunc i32 %42 to i8
  %44 = load ptr, ptr %11, align 8
  store i8 %43, ptr %44, align 1
  %45 = load i32, ptr %8, align 4
  %46 = add nsw i32 %45, 1
  %47 = load i32, ptr %13, align 4
  %48 = call noundef i32 @_Z5rcMinIiET_S0_S0_(i32 noundef %46, i32 noundef %47)
  store i32 %48, ptr %14, align 4
  %49 = load ptr, ptr %12, align 8
  %50 = load ptr, ptr %7, align 8
  %51 = load i32, ptr %14, align 4
  %52 = sext i32 %51 to i64
  call void @llvm.memcpy.p0.p0.i64(ptr align 1 %49, ptr align 1 %50, i64 %52, i1 false)
  %53 = load ptr, ptr %12, align 8
  %54 = load i32, ptr %14, align 4
  %55 = sub nsw i32 %54, 1
  %56 = sext i32 %55 to i64
  %57 = getelementptr inbounds i8, ptr %53, i64 %56
  store i8 0, ptr %57, align 1
  %58 = load i32, ptr %14, align 4
  %59 = add nsw i32 1, %58
  %60 = getelementptr inbounds %class.BuildContext, ptr %15, i32 0, i32 6
  %61 = load i32, ptr %60, align 4
  %62 = add nsw i32 %61, %59
  store i32 %62, ptr %60, align 4
  %63 = load ptr, ptr %9, align 8
  %64 = getelementptr inbounds %class.BuildContext, ptr %15, i32 0, i32 3
  %65 = getelementptr inbounds %class.BuildContext, ptr %15, i32 0, i32 4
  %66 = load i32, ptr %65, align 8
  %67 = add nsw i32 %66, 1
  store i32 %67, ptr %65, align 8
  %68 = sext i32 %66 to i64
  %69 = getelementptr inbounds [1000 x ptr], ptr %64, i64 0, i64 %68
  store ptr %63, ptr %69, align 8
  br label %70

70:                                               ; preds = %36, %35, %23, %18
  ret void
}